(lp0
cnumpy.core.multiarray
scalar
p1
(cnumpy
dtype
p2
(S'f8'
p3
I0
I1
tp4
Rp5
(I3
S'<'
p6
NNNI-1
I-1
I0
tp7
bS'\r\xdaDi$\xecI\xc0'
p8
tp9
Rp10
ag1
(g5
S'\x191\xb19\xfcM$\xc0'
p11
tp12
Rp13
ag1
(g5
S'\x00\x00\x00\x00\x00\x00\x00\x00'
p14
tp15
Rp16
aF-0.0
aF-0.0
aF0.7548104616041944
aF0.6559429602129007
a.