(lp0
cnumpy.core.multiarray
scalar
p1
(cnumpy
dtype
p2
(S'f8'
p3
I0
I1
tp4
Rp5
(I3
S'<'
p6
NNNI-1
I-1
I0
tp7
bS'2\xff878\xf3I\xc0'
p8
tp9
Rp10
ag1
(g5
S'\xe8\x16\xf3\xd4\xabq$\xc0'
p11
tp12
Rp13
ag1
(g5
S'\x00\x00\x00\x00\x00\x00\x00\x00'
p14
tp15
Rp16
aF-0.0
aF-0.0
aF0.3150143327036251
aF0.9490869139290089
a.