(lp0
cnumpy.core.multiarray
scalar
p1
(cnumpy
dtype
p2
(S'f8'
p3
I0
I1
tp4
Rp5
(I3
S'<'
p6
NNNI-1
I-1
I0
tp7
bS'\x83gqGD\xedI\xc0'
p8
tp9
Rp10
ag1
(g5
S'\xb2WKdy6$\xc0'
p11
tp12
Rp13
ag1
(g5
S'\x00\x00\x00\x00\x00\x00\x00\x00'
p14
tp15
Rp16
aF-0.0
aF-0.0
aF-0.0686645168877235
aF0.9976398068043272
a.